; Function Attrs: mustprogress uwtable
define void @_ZN32pxrInternal_v0_24__pxrReserved__7TfDebug15_InitializeNodeERNS0_5_NodeEPKc(ptr noundef nonnull align 4 dereferenceable(4) %0, ptr noundef %1) local_unnamed_addr #0 align 2 {
  %3 = load atomic i64, ptr @_ZN32pxrInternal_v0_24__pxrReserved__11TfSingletonINS_22Tf_DebugSymbolRegistryEE9_instanceE seq_cst, align 8
  %.0.i.i = inttoptr i64 %3 to ptr
  %.not.i = icmp eq i64 %3, 0
  br i1 %.not.i, label %4, label %_ZN32pxrInternal_v0_24__pxrReserved__11TfSingletonINS_22Tf_DebugSymbolRegistryEE11GetInstanceEv.exit

4:                                                ; preds = %2
  %5 = tail call noundef ptr @_ZN32pxrInternal_v0_24__pxrReserved__11TfSingletonINS_22Tf_DebugSymbolRegistryEE15_CreateInstanceERSt6atomicIPS1_E(ptr noundef nonnull align 8 dereferenceable(8) @_ZN32pxrInternal_v0_24__pxrReserved__11TfSingletonINS_22Tf_DebugSymbolRegistryEE9_instanceE)
  br label %_ZN32pxrInternal_v0_24__pxrReserved__11TfSingletonINS_22Tf_DebugSymbolRegistryEE11GetInstanceEv.exit

_ZN32pxrInternal_v0_24__pxrReserved__11TfSingletonINS_22Tf_DebugSymbolRegistryEE11GetInstanceEv.exit: ; preds = %2, %4
  %.0.i = phi ptr [ %.0.i.i, %2 ], [ %5, %4 ]
  tail call void @_ZN32pxrInternal_v0_24__pxrReserved__22Tf_DebugSymbolRegistry15_InitializeNodeERNS_7TfDebug5_NodeEPKc(ptr noundef nonnull align 8 dereferenceable(176) %.0.i, ptr noundef nonnull align 4 dereferenceable(4) %0, ptr noundef %1)
  ret void
}